target datalayout = "e-m:e-p270:32:32-p271:32:32-p272:64:64-i64:64-i128:128-f80:128-n8:16:32:64-S128"
target triple = "x86_64-pc-linux-gnu"

%class.State = type { [315 x i32], [315 x i16], i32, ptr, [2 x ptr] }
%class.Type.base = type <{ ptr, ptr, i32 }>
%class.Type = type <{ ptr, ptr, i32, [4 x i8] }>
%class.TypePtr = type <{ %class.Type.base, [4 x i8], ptr, i32, i32, i32, [4 x i8] }>
%class.TypeNarrowPtr = type { %class.Type.base, ptr }

; Function Attrs: mustprogress nounwind uwtable
define linkonce_odr hidden noundef ptr @_ZNK4Type7isa_ptrEv(ptr noundef nonnull align 8 dereferenceable(20) %0) #1 comdat align 2 {
  %2 = alloca ptr, align 8
  store ptr %0, ptr %2, align 8
  %3 = load ptr, ptr %2, align 8
  %4 = getelementptr inbounds %class.Type, ptr %3, i32 0, i32 2
  %5 = load i32, ptr %4, align 8
  %6 = icmp sge i32 %5, 18
  br i1 %6, label %7, label %12

7:                                                ; preds = %1
  %8 = getelementptr inbounds %class.Type, ptr %3, i32 0, i32 2
  %9 = load i32, ptr %8, align 8
  %10 = icmp sle i32 %9, 26
  br i1 %10, label %11, label %12

11:                                               ; preds = %7
  br label %13

12:                                               ; preds = %7, %1
  br label %13

13:                                               ; preds = %12, %11
  %14 = phi ptr [ %3, %11 ], [ null, %12 ]
  ret ptr %14
}

; Function Attrs: mustprogress nounwind uwtable
define linkonce_odr hidden noundef ptr @_ZNK4Type14is_narrowklassEv(ptr noundef nonnull align 8 dereferenceable(20) %0) #1 comdat align 2 {
  %2 = alloca ptr, align 8
  store ptr %0, ptr %2, align 8
  %3 = load ptr, ptr %2, align 8
  ret ptr %3
}

; Function Attrs: mustprogress nounwind uwtable
define linkonce_odr hidden noundef ptr @_ZNK13TypeNarrowPtr11get_ptrtypeEv(ptr noundef nonnull align 8 dereferenceable(32) %0) #1 comdat align 2 {
  %2 = alloca ptr, align 8
  store ptr %0, ptr %2, align 8
  %3 = load ptr, ptr %2, align 8
  %4 = getelementptr inbounds %class.TypeNarrowPtr, ptr %3, i32 0, i32 1
  %5 = load ptr, ptr %4, align 8
  ret ptr %5
}

; Function Attrs: mustprogress nounwind uwtable
define linkonce_odr hidden noundef ptr @_ZNK4Type12is_narrowoopEv(ptr noundef nonnull align 8 dereferenceable(20) %0) #1 comdat align 2 {
  %2 = alloca ptr, align 8
  store ptr %0, ptr %2, align 8
  %3 = load ptr, ptr %2, align 8
  ret ptr %3
}

; Function Attrs: mustprogress nounwind uwtable
define linkonce_odr hidden noundef i32 @_ZNK7TypePtr3ptrEv(ptr noundef nonnull align 8 dereferenceable(44) %0) #1 comdat align 2 {
  %2 = alloca ptr, align 8
  store ptr %0, ptr %2, align 8
  %3 = load ptr, ptr %2, align 8
  %4 = getelementptr inbounds %class.TypePtr, ptr %3, i32 0, i32 5
  %5 = load i32, ptr %4, align 8
  ret i32 %5
}

; Function Attrs: mustprogress nounwind uwtable
define linkonce_odr hidden noundef ptr @_ZNK4Type8make_ptrEv(ptr noundef nonnull align 8 dereferenceable(20) %0) #1 comdat align 2 {
  %2 = alloca ptr, align 8
  store ptr %0, ptr %2, align 8
  %3 = load ptr, ptr %2, align 8
  %4 = getelementptr inbounds %class.Type, ptr %3, i32 0, i32 2
  %5 = load i32, ptr %4, align 8
  %6 = icmp eq i32 %5, 6
  br i1 %6, label %7, label %10

7:                                                ; preds = %1
  %8 = call noundef ptr @_ZNK4Type12is_narrowoopEv(ptr noundef nonnull align 8 dereferenceable(20) %3)
  %9 = call noundef ptr @_ZNK13TypeNarrowPtr11get_ptrtypeEv(ptr noundef nonnull align 8 dereferenceable(32) %8)
  br label %21

10:                                               ; preds = %1
  %11 = getelementptr inbounds %class.Type, ptr %3, i32 0, i32 2
  %12 = load i32, ptr %11, align 8
  %13 = icmp eq i32 %12, 7
  br i1 %13, label %14, label %17

14:                                               ; preds = %10
  %15 = call noundef ptr @_ZNK4Type14is_narrowklassEv(ptr noundef nonnull align 8 dereferenceable(20) %3)
  %16 = call noundef ptr @_ZNK13TypeNarrowPtr11get_ptrtypeEv(ptr noundef nonnull align 8 dereferenceable(32) %15)
  br label %19

17:                                               ; preds = %10
  %18 = call noundef ptr @_ZNK4Type7isa_ptrEv(ptr noundef nonnull align 8 dereferenceable(20) %3)
  br label %19

19:                                               ; preds = %17, %14
  %20 = phi ptr [ %16, %14 ], [ %18, %17 ]
  br label %21

21:                                               ; preds = %19, %7
  %22 = phi ptr [ %9, %7 ], [ %20, %19 ]
  ret ptr %22
}

; Function Attrs: mustprogress nounwind uwtable
define hidden void @_ZN5State15_sub_Op_EncodePEPK4Node(ptr noundef nonnull align 8 dereferenceable(1920) %0, ptr noundef %1) #1 align 2 {
  %3 = alloca ptr, align 8
  %4 = alloca ptr, align 8
  %5 = alloca i32, align 4
  %6 = alloca i32, align 4
  store ptr %0, ptr %3, align 8
  store ptr %1, ptr %4, align 8
  %7 = load ptr, ptr %3, align 8
  %8 = getelementptr inbounds %class.State, ptr %7, i32 0, i32 4
  %9 = getelementptr inbounds [2 x ptr], ptr %8, i64 0, i64 0
  %10 = load ptr, ptr %9, align 8
  %11 = icmp ne ptr %10, null
  br i1 %11, label %12, label %49

12:                                               ; preds = %2
  %13 = getelementptr inbounds %class.State, ptr %7, i32 0, i32 4
  %14 = getelementptr inbounds [2 x ptr], ptr %13, i64 0, i64 0
  %15 = load ptr, ptr %14, align 8
  %16 = getelementptr inbounds %class.State, ptr %15, i32 0, i32 1
  %17 = getelementptr inbounds [315 x i16], ptr %16, i64 0, i64 58
  %18 = load i16, ptr %17, align 4
  %19 = zext i16 %18 to i32
  %20 = and i32 %19, 1
  %21 = icmp ne i32 %20, 0
  br i1 %21, label %22, label %49

22:                                               ; preds = %12
  %23 = load ptr, ptr %4, align 8
  %24 = load ptr, ptr %23, align 8
  %25 = getelementptr inbounds ptr, ptr %24, i64 5
  %26 = load ptr, ptr %25, align 8
  %27 = call noundef ptr %26(ptr noundef nonnull align 8 dereferenceable(52) %23)
  %28 = call noundef ptr @_ZNK4Type8make_ptrEv(ptr noundef nonnull align 8 dereferenceable(20) %27)
  %29 = call noundef i32 @_ZNK7TypePtr3ptrEv(ptr noundef nonnull align 8 dereferenceable(44) %28)
  %30 = icmp eq i32 %29, 4
  br i1 %30, label %31, label %49

31:                                               ; preds = %22
  %32 = getelementptr inbounds %class.State, ptr %7, i32 0, i32 4
  %33 = getelementptr inbounds [2 x ptr], ptr %32, i64 0, i64 0
  %34 = load ptr, ptr %33, align 8
  %35 = getelementptr inbounds %class.State, ptr %34, i32 0, i32 0
  %36 = getelementptr inbounds [315 x i32], ptr %35, i64 0, i64 58
  %37 = load i32, ptr %36, align 8
  %38 = add i32 %37, 100
  store i32 %38, ptr %5, align 4
  %39 = load i32, ptr %5, align 4
  %40 = getelementptr inbounds %class.State, ptr %7, i32 0, i32 0
  %41 = getelementptr inbounds [315 x i32], ptr %40, i64 0, i64 59
  store i32 %39, ptr %41, align 4
  %42 = getelementptr inbounds %class.State, ptr %7, i32 0, i32 1
  %43 = getelementptr inbounds [315 x i16], ptr %42, i64 0, i64 59
  store i16 1319, ptr %43, align 2
  %44 = load i32, ptr %5, align 4
  %45 = getelementptr inbounds %class.State, ptr %7, i32 0, i32 0
  %46 = getelementptr inbounds [315 x i32], ptr %45, i64 0, i64 62
  store i32 %44, ptr %46, align 8
  %47 = getelementptr inbounds %class.State, ptr %7, i32 0, i32 1
  %48 = getelementptr inbounds [315 x i16], ptr %47, i64 0, i64 62
  store i16 1319, ptr %48, align 4
  br label %49

49:                                               ; preds = %31, %22, %12, %2
  %50 = getelementptr inbounds %class.State, ptr %7, i32 0, i32 4
  %51 = getelementptr inbounds [2 x ptr], ptr %50, i64 0, i64 0
  %52 = load ptr, ptr %51, align 8
  %53 = icmp ne ptr %52, null
  br i1 %53, label %54, label %119

54:                                               ; preds = %49
  %55 = getelementptr inbounds %class.State, ptr %7, i32 0, i32 4
  %56 = getelementptr inbounds [2 x ptr], ptr %55, i64 0, i64 0
  %57 = load ptr, ptr %56, align 8
  %58 = getelementptr inbounds %class.State, ptr %57, i32 0, i32 1
  %59 = getelementptr inbounds [315 x i16], ptr %58, i64 0, i64 58
  %60 = load i16, ptr %59, align 4
  %61 = zext i16 %60 to i32
  %62 = and i32 %61, 1
  %63 = icmp ne i32 %62, 0
  br i1 %63, label %64, label %119

64:                                               ; preds = %54
  %65 = load ptr, ptr %4, align 8
  %66 = load ptr, ptr %65, align 8
  %67 = getelementptr inbounds ptr, ptr %66, i64 5
  %68 = load ptr, ptr %67, align 8
  %69 = call noundef ptr %68(ptr noundef nonnull align 8 dereferenceable(52) %65)
  %70 = call noundef ptr @_ZNK4Type8make_ptrEv(ptr noundef nonnull align 8 dereferenceable(20) %69)
  %71 = call noundef i32 @_ZNK7TypePtr3ptrEv(ptr noundef nonnull align 8 dereferenceable(44) %70)
  %72 = icmp ne i32 %71, 4
  br i1 %72, label %73, label %119

73:                                               ; preds = %64
  %74 = getelementptr inbounds %class.State, ptr %7, i32 0, i32 4
  %75 = getelementptr inbounds [2 x ptr], ptr %74, i64 0, i64 0
  %76 = load ptr, ptr %75, align 8
  %77 = getelementptr inbounds %class.State, ptr %76, i32 0, i32 0
  %78 = getelementptr inbounds [315 x i32], ptr %77, i64 0, i64 58
  %79 = load i32, ptr %78, align 8
  %80 = add i32 %79, 100
  store i32 %80, ptr %6, align 4
  %81 = getelementptr inbounds %class.State, ptr %7, i32 0, i32 1
  %82 = getelementptr inbounds [315 x i16], ptr %81, i64 0, i64 59
  %83 = load i16, ptr %82, align 2
  %84 = zext i16 %83 to i32
  %85 = and i32 %84, 1
  %86 = icmp eq i32 %85, 0
  br i1 %86, label %93, label %87

87:                                               ; preds = %73
  %88 = getelementptr inbounds %class.State, ptr %7, i32 0, i32 0
  %89 = getelementptr inbounds [315 x i32], ptr %88, i64 0, i64 59
  %90 = load i32, ptr %89, align 4
  %91 = load i32, ptr %6, align 4
  %92 = icmp ugt i32 %90, %91
  br i1 %92, label %93, label %99

93:                                               ; preds = %87, %73
  %94 = load i32, ptr %6, align 4
  %95 = getelementptr inbounds %class.State, ptr %7, i32 0, i32 0
  %96 = getelementptr inbounds [315 x i32], ptr %95, i64 0, i64 59
  store i32 %94, ptr %96, align 4
  %97 = getelementptr inbounds %class.State, ptr %7, i32 0, i32 1
  %98 = getelementptr inbounds [315 x i16], ptr %97, i64 0, i64 59
  store i16 1317, ptr %98, align 2
  br label %99

99:                                               ; preds = %93, %87
  %100 = getelementptr inbounds %class.State, ptr %7, i32 0, i32 1
  %101 = getelementptr inbounds [315 x i16], ptr %100, i64 0, i64 62
  %102 = load i16, ptr %101, align 4
  %103 = zext i16 %102 to i32
  %104 = and i32 %103, 1
  %105 = icmp eq i32 %104, 0
  br i1 %105, label %112, label %106

106:                                              ; preds = %99
  %107 = getelementptr inbounds %class.State, ptr %7, i32 0, i32 0
  %108 = getelementptr inbounds [315 x i32], ptr %107, i64 0, i64 62
  %109 = load i32, ptr %108, align 8
  %110 = load i32, ptr %6, align 4
  %111 = icmp ugt i32 %109, %110
  br i1 %111, label %112, label %118

112:                                              ; preds = %106, %99
  %113 = load i32, ptr %6, align 4
  %114 = getelementptr inbounds %class.State, ptr %7, i32 0, i32 0
  %115 = getelementptr inbounds [315 x i32], ptr %114, i64 0, i64 62
  store i32 %113, ptr %115, align 8
  %116 = getelementptr inbounds %class.State, ptr %7, i32 0, i32 1
  %117 = getelementptr inbounds [315 x i16], ptr %116, i64 0, i64 62
  store i16 1317, ptr %117, align 4
  br label %118

118:                                              ; preds = %112, %106
  br label %119

119:                                              ; preds = %118, %64, %54, %49
  ret void
}