; Function Attrs: mustprogress nounwind uwtable
define hidden void @_ZN5State15_sub_Op_EncodePEPK4Node(ptr nocapture noundef nonnull align 8 dereferenceable(1920) %0, ptr noundef %1) local_unnamed_addr #2 align 2 {
  %3 = getelementptr inbounds i8, ptr %0, i64 1904
  %4 = load ptr, ptr %3, align 8
  %.not = icmp eq ptr %4, null
  br i1 %.not, label %.thread, label %5

5:                                                ; preds = %2
  %6 = getelementptr inbounds i8, ptr %4, i64 1376
  %7 = load i16, ptr %6, align 4
  %8 = and i16 %7, 1
  %.not9 = icmp eq i16 %8, 0
  br i1 %.not9, label %.thread22, label %9

9:                                                ; preds = %5
  %10 = load ptr, ptr %1, align 8
  %11 = getelementptr inbounds i8, ptr %10, i64 40
  %12 = load ptr, ptr %11, align 8
  %13 = tail call noundef ptr %12(ptr noundef nonnull align 8 dereferenceable(52) %1) #9
  %14 = getelementptr inbounds i8, ptr %13, i64 16
  %15 = load i32, ptr %14, align 8
  switch i32 %15, label %22 [
    i32 6, label %16
    i32 7, label %19
  ]

16:                                               ; preds = %9
  %17 = getelementptr inbounds i8, ptr %13, i64 24
  %18 = load ptr, ptr %17, align 8
  br label %_ZNK4Type8make_ptrEv.exit

19:                                               ; preds = %9
  %20 = getelementptr inbounds i8, ptr %13, i64 24
  %21 = load ptr, ptr %20, align 8
  br label %_ZNK4Type8make_ptrEv.exit

22:                                               ; preds = %9
  %23 = add i32 %15, -18
  %or.cond.i.i = icmp ult i32 %23, 9
  %24 = select i1 %or.cond.i.i, ptr %13, ptr null
  br label %_ZNK4Type8make_ptrEv.exit

_ZNK4Type8make_ptrEv.exit:                        ; preds = %16, %19, %22
  %25 = phi ptr [ %18, %16 ], [ %21, %19 ], [ %24, %22 ]
  %26 = getelementptr inbounds i8, ptr %25, i64 40
  %27 = load i32, ptr %26, align 8
  %28 = icmp eq i32 %27, 4
  %.pr.pre = load ptr, ptr %3, align 8
  br i1 %28, label %29, label %37

29:                                               ; preds = %_ZNK4Type8make_ptrEv.exit
  %30 = getelementptr inbounds i8, ptr %.pr.pre, i64 232
  %31 = load i32, ptr %30, align 8
  %32 = add i32 %31, 100
  %33 = getelementptr inbounds i8, ptr %0, i64 236
  store i32 %32, ptr %33, align 4
  %34 = getelementptr inbounds i8, ptr %0, i64 1378
  store i16 1319, ptr %34, align 2
  %35 = getelementptr inbounds i8, ptr %0, i64 248
  store i32 %32, ptr %35, align 8
  %36 = getelementptr inbounds i8, ptr %0, i64 1384
  store i16 1319, ptr %36, align 8
  br label %.thread22

37:                                               ; preds = %_ZNK4Type8make_ptrEv.exit
  %.not10 = icmp eq ptr %.pr.pre, null
  br i1 %.not10, label %.thread, label %.thread22

.thread22:                                        ; preds = %5, %29, %37
  %.pr25 = phi ptr [ %.pr.pre, %37 ], [ %4, %5 ], [ %.pr.pre, %29 ]
  %38 = getelementptr inbounds i8, ptr %.pr25, i64 1376
  %39 = load i16, ptr %38, align 4
  %40 = and i16 %39, 1
  %.not11 = icmp eq i16 %40, 0
  br i1 %.not11, label %.thread, label %41

41:                                               ; preds = %.thread22
  %42 = load ptr, ptr %1, align 8
  %43 = getelementptr inbounds i8, ptr %42, i64 40
  %44 = load ptr, ptr %43, align 8
  %45 = tail call noundef ptr %44(ptr noundef nonnull align 8 dereferenceable(52) %1) #9
  %46 = getelementptr inbounds i8, ptr %45, i64 16
  %47 = load i32, ptr %46, align 8
  switch i32 %47, label %54 [
    i32 6, label %48
    i32 7, label %51
  ]

48:                                               ; preds = %41
  %49 = getelementptr inbounds i8, ptr %45, i64 24
  %50 = load ptr, ptr %49, align 8
  br label %_ZNK4Type8make_ptrEv.exit19

51:                                               ; preds = %41
  %52 = getelementptr inbounds i8, ptr %45, i64 24
  %53 = load ptr, ptr %52, align 8
  br label %_ZNK4Type8make_ptrEv.exit19

54:                                               ; preds = %41
  %55 = add i32 %47, -18
  %or.cond.i.i18 = icmp ult i32 %55, 9
  %56 = select i1 %or.cond.i.i18, ptr %45, ptr null
  br label %_ZNK4Type8make_ptrEv.exit19

_ZNK4Type8make_ptrEv.exit19:                      ; preds = %48, %51, %54
  %57 = phi ptr [ %50, %48 ], [ %53, %51 ], [ %56, %54 ]
  %58 = getelementptr inbounds i8, ptr %57, i64 40
  %59 = load i32, ptr %58, align 8
  %.not12 = icmp eq i32 %59, 4
  br i1 %.not12, label %.thread, label %60

60:                                               ; preds = %_ZNK4Type8make_ptrEv.exit19
  %61 = load ptr, ptr %3, align 8
  %62 = getelementptr inbounds i8, ptr %61, i64 232
  %63 = load i32, ptr %62, align 8
  %64 = add i32 %63, 100
  %65 = getelementptr inbounds i8, ptr %0, i64 1378
  %66 = load i16, ptr %65, align 2
  %67 = and i16 %66, 1
  %68 = icmp eq i16 %67, 0
  %69 = getelementptr inbounds i8, ptr %0, i64 236
  %70 = load i32, ptr %69, align 4
  %71 = icmp ugt i32 %70, %64
  %or.cond = select i1 %68, i1 true, i1 %71
  br i1 %or.cond, label %72, label %73

72:                                               ; preds = %60
  store i32 %64, ptr %69, align 4
  store i16 1317, ptr %65, align 2
  br label %73

73:                                               ; preds = %60, %72
  %74 = getelementptr inbounds i8, ptr %0, i64 1384
  %75 = load i16, ptr %74, align 8
  %76 = and i16 %75, 1
  %77 = icmp eq i16 %76, 0
  %78 = getelementptr inbounds i8, ptr %0, i64 248
  %79 = load i32, ptr %78, align 8
  %80 = icmp ugt i32 %79, %64
  %or.cond17 = select i1 %77, i1 true, i1 %80
  br i1 %or.cond17, label %81, label %.thread

81:                                               ; preds = %73
  store i32 %64, ptr %78, align 8
  store i16 1317, ptr %74, align 8
  br label %.thread

.thread:                                          ; preds = %2, %73, %81, %_ZNK4Type8make_ptrEv.exit19, %.thread22, %37
  ret void
}